; Function Attrs: mustprogress nounwind uwtable
define dso_local noundef nonnull align 8 dereferenceable(16) ptr @_ZN4llvm6detailrMERNS0_16SlowDynamicAPIntEl(ptr noundef nonnull returned align 8 dereferenceable(16) %0, i64 noundef %1) local_unnamed_addr #1 {
  %3 = alloca %"class.llvm::detail::SlowDynamicAPInt", align 8
  %4 = alloca %"class.llvm::detail::SlowDynamicAPInt", align 8
  call void @_ZN4llvm6detail16SlowDynamicAPIntC1El(ptr noundef nonnull align 8 dereferenceable(16) %4, i64 noundef %1) #9
  call void @llvm.lifetime.start.p0(i64 16, ptr nonnull %3)
  call void @_ZNK4llvm6detail16SlowDynamicAPIntrmERKS1_(ptr dead_on_unwind nonnull writable sret(%"class.llvm::detail::SlowDynamicAPInt") align 8 %3, ptr noundef nonnull align 8 dereferenceable(16) %0, ptr noundef nonnull align 8 dereferenceable(16) %4)
  %5 = getelementptr inbounds nuw i8, ptr %0, i64 8
  %6 = load i32, ptr %5, align 8
  %7 = icmp ult i32 %6, 65
  br i1 %7, label %_ZN4llvm6detail16SlowDynamicAPIntrMERKS1_.exit, label %8

8:                                                ; preds = %2
  %9 = load ptr, ptr %0, align 8
  %10 = icmp eq ptr %9, null
  br i1 %10, label %_ZN4llvm6detail16SlowDynamicAPIntrMERKS1_.exit, label %11

11:                                               ; preds = %8
  call void @_ZdaPv(ptr noundef nonnull %9) #10
  br label %_ZN4llvm6detail16SlowDynamicAPIntrMERKS1_.exit

_ZN4llvm6detail16SlowDynamicAPIntrMERKS1_.exit:   ; preds = %2, %8, %11
  %12 = load i64, ptr %3, align 8
  store i64 %12, ptr %0, align 8
  %13 = getelementptr inbounds nuw i8, ptr %3, i64 8
  %14 = load i32, ptr %13, align 8
  store i32 %14, ptr %5, align 8
  call void @llvm.lifetime.end.p0(i64 16, ptr nonnull %3)
  %15 = getelementptr inbounds nuw i8, ptr %4, i64 8
  %16 = load i32, ptr %15, align 8
  %17 = icmp ugt i32 %16, 64
  br i1 %17, label %18, label %_ZN4llvm6detail16SlowDynamicAPIntD2Ev.exit

18:                                               ; preds = %_ZN4llvm6detail16SlowDynamicAPIntrMERKS1_.exit
  %19 = load ptr, ptr %4, align 8
  %20 = icmp eq ptr %19, null
  br i1 %20, label %_ZN4llvm6detail16SlowDynamicAPIntD2Ev.exit, label %21

21:                                               ; preds = %18
  call void @_ZdaPv(ptr noundef nonnull %19) #10
  br label %_ZN4llvm6detail16SlowDynamicAPIntD2Ev.exit

_ZN4llvm6detail16SlowDynamicAPIntD2Ev.exit:       ; preds = %_ZN4llvm6detail16SlowDynamicAPIntrMERKS1_.exit, %18, %21
  ret ptr %0
}